target datalayout = "e-m:e-p270:32:32-p271:32:32-p272:64:64-i64:64-i128:128-f80:128-n8:16:32:64-S128"
target triple = "x86_64-pc-linux-gnu"

%"struct.faiss::CodePacker" = type { ptr, i64, i64, i64 }
%"struct.faiss::CodePackerPQ4" = type { %"struct.faiss::CodePacker", i64 }

; Function Attrs: mustprogress nounwind uwtable
define internal noundef i64 @_ZN5faiss12_GLOBAL__N_127get_vector_specific_addressEmmmRb(i64 noundef %0, i64 noundef %1, i64 noundef %2, ptr noundef nonnull align 1 dereferenceable(1) %3) #0 {
  %5 = alloca i64, align 8
  %6 = alloca i64, align 8
  %7 = alloca i64, align 8
  %8 = alloca ptr, align 8
  %9 = alloca i64, align 8
  store i64 %0, ptr %5, align 8, !tbaa !11
  store i64 %1, ptr %6, align 8, !tbaa !11
  store i64 %2, ptr %7, align 8, !tbaa !11
  store ptr %3, ptr %8, align 8, !tbaa !61
  %10 = load i64, ptr %6, align 8, !tbaa !11
  %11 = load i64, ptr %5, align 8, !tbaa !11
  %12 = urem i64 %10, %11
  store i64 %12, ptr %6, align 8, !tbaa !11
  %13 = load i64, ptr %6, align 8, !tbaa !11
  %14 = icmp ugt i64 %13, 15
  %15 = load ptr, ptr %8, align 8, !tbaa !61
  %16 = zext i1 %14 to i8
  store i8 %16, ptr %15, align 1, !tbaa !57
  %17 = load i64, ptr %6, align 8, !tbaa !11
  %18 = and i64 %17, 15
  store i64 %18, ptr %6, align 8, !tbaa !11
  call void @llvm.lifetime.start.p0(i64 8, ptr %9) #6
  %19 = load i64, ptr %6, align 8, !tbaa !11
  %20 = icmp ult i64 %19, 8
  br i1 %20, label %21, label %24

21:                                               ; preds = %4
  %22 = load i64, ptr %6, align 8, !tbaa !11
  %23 = shl i64 %22, 1
  store i64 %23, ptr %9, align 8, !tbaa !11
  br label %29

24:                                               ; preds = %4
  %25 = load i64, ptr %6, align 8, !tbaa !11
  %26 = sub i64 %25, 8
  %27 = shl i64 %26, 1
  %28 = add i64 %27, 1
  store i64 %28, ptr %9, align 8, !tbaa !11
  br label %29

29:                                               ; preds = %24, %21
  %30 = load i64, ptr %7, align 8, !tbaa !11
  %31 = and i64 %30, 1
  %32 = icmp ne i64 %31, 0
  br i1 %32, label %33, label %36

33:                                               ; preds = %29
  %34 = load i64, ptr %9, align 8, !tbaa !11
  %35 = add i64 %34, 16
  store i64 %35, ptr %9, align 8, !tbaa !11
  br label %36

36:                                               ; preds = %33, %29
  %37 = load i64, ptr %7, align 8, !tbaa !11
  %38 = lshr i64 %37, 1
  %39 = load i64, ptr %5, align 8, !tbaa !11
  %40 = mul i64 %38, %39
  %41 = load i64, ptr %9, align 8, !tbaa !11
  %42 = add i64 %40, %41
  call void @llvm.lifetime.end.p0(i64 8, ptr %9) #6
  ret i64 %42
}

; Function Attrs: mustprogress nounwind uwtable
define void @_ZN5faiss22pq4_set_packed_elementEPhhmmmm(ptr noundef %0, i8 noundef zeroext %1, i64 noundef %2, i64 noundef %3, i64 noundef %4, i64 noundef %5) #0 {
  %7 = alloca ptr, align 8
  %8 = alloca i8, align 1
  %9 = alloca i64, align 8
  %10 = alloca i64, align 8
  %11 = alloca i64, align 8
  %12 = alloca i64, align 8
  %13 = alloca i8, align 1
  %14 = alloca i64, align 8
  store ptr %0, ptr %7, align 8, !tbaa !9
  store i8 %1, ptr %8, align 1, !tbaa !17
  store i64 %2, ptr %9, align 8, !tbaa !11
  store i64 %3, ptr %10, align 8, !tbaa !11
  store i64 %4, ptr %11, align 8, !tbaa !11
  store i64 %5, ptr %12, align 8, !tbaa !11
  %15 = load i64, ptr %11, align 8, !tbaa !11
  %16 = load i64, ptr %9, align 8, !tbaa !11
  %17 = udiv i64 %15, %16
  %18 = load i64, ptr %10, align 8, !tbaa !11
  %19 = add i64 %18, 1
  %20 = udiv i64 %19, 2
  %21 = load i64, ptr %9, align 8, !tbaa !11
  %22 = mul i64 %20, %21
  %23 = mul i64 %17, %22
  %24 = load ptr, ptr %7, align 8, !tbaa !9
  %25 = getelementptr inbounds nuw i8, ptr %24, i64 %23
  store ptr %25, ptr %7, align 8, !tbaa !9
  call void @llvm.lifetime.start.p0(i64 1, ptr %13) #6
  call void @llvm.lifetime.start.p0(i64 8, ptr %14) #6
  %26 = load i64, ptr %9, align 8, !tbaa !11
  %27 = load i64, ptr %11, align 8, !tbaa !11
  %28 = load i64, ptr %12, align 8, !tbaa !11
  %29 = call noundef i64 @_ZN5faiss12_GLOBAL__N_127get_vector_specific_addressEmmmRb(i64 noundef %26, i64 noundef %27, i64 noundef %28, ptr noundef nonnull align 1 dereferenceable(1) %13)
  store i64 %29, ptr %14, align 8, !tbaa !11
  %30 = load i8, ptr %13, align 1, !tbaa !57, !range !59, !noundef !60
  %31 = trunc i8 %30 to i1
  br i1 %31, label %32, label %47

32:                                               ; preds = %6
  %33 = load i8, ptr %8, align 1, !tbaa !17
  %34 = zext i8 %33 to i32
  %35 = shl i32 %34, 4
  %36 = load ptr, ptr %7, align 8, !tbaa !9
  %37 = load i64, ptr %14, align 8, !tbaa !11
  %38 = getelementptr inbounds nuw i8, ptr %36, i64 %37
  %39 = load i8, ptr %38, align 1, !tbaa !17
  %40 = zext i8 %39 to i32
  %41 = and i32 %40, 15
  %42 = or i32 %35, %41
  %43 = trunc i32 %42 to i8
  %44 = load ptr, ptr %7, align 8, !tbaa !9
  %45 = load i64, ptr %14, align 8, !tbaa !11
  %46 = getelementptr inbounds nuw i8, ptr %44, i64 %45
  store i8 %43, ptr %46, align 1, !tbaa !17
  br label %61

47:                                               ; preds = %6
  %48 = load i8, ptr %8, align 1, !tbaa !17
  %49 = zext i8 %48 to i32
  %50 = load ptr, ptr %7, align 8, !tbaa !9
  %51 = load i64, ptr %14, align 8, !tbaa !11
  %52 = getelementptr inbounds nuw i8, ptr %50, i64 %51
  %53 = load i8, ptr %52, align 1, !tbaa !17
  %54 = zext i8 %53 to i32
  %55 = and i32 %54, -16
  %56 = or i32 %49, %55
  %57 = trunc i32 %56 to i8
  %58 = load ptr, ptr %7, align 8, !tbaa !9
  %59 = load i64, ptr %14, align 8, !tbaa !11
  %60 = getelementptr inbounds nuw i8, ptr %58, i64 %59
  store i8 %57, ptr %60, align 1, !tbaa !17
  br label %61

61:                                               ; preds = %47, %32
  call void @llvm.lifetime.end.p0(i64 8, ptr %14) #6
  call void @llvm.lifetime.end.p0(i64 1, ptr %13) #6
  ret void
}

; Function Attrs: mustprogress nounwind uwtable
define void @_ZNK5faiss13CodePackerPQ46pack_1EPKhmPh(ptr noundef nonnull align 8 dereferenceable(40) %0, ptr noundef %1, i64 noundef %2, ptr noundef %3) unnamed_addr #0 align 2 {
  %5 = alloca ptr, align 8
  %6 = alloca ptr, align 8
  %7 = alloca i64, align 8
  %8 = alloca ptr, align 8
  %9 = alloca i64, align 8
  %10 = alloca i64, align 8
  %11 = alloca i8, align 1
  store ptr %0, ptr %5, align 8, !tbaa !4
  store ptr %1, ptr %6, align 8, !tbaa !9
  store i64 %2, ptr %7, align 8, !tbaa !11
  store ptr %3, ptr %8, align 8, !tbaa !9
  %12 = load ptr, ptr %5, align 8
  call void @llvm.lifetime.start.p0(i64 8, ptr %9) #6
  %13 = getelementptr inbounds nuw %"struct.faiss::CodePacker", ptr %12, i32 0, i32 2
  %14 = load i64, ptr %13, align 8, !tbaa !13
  store i64 %14, ptr %9, align 8, !tbaa !11
  %15 = load i64, ptr %7, align 8, !tbaa !11
  %16 = getelementptr inbounds nuw %"struct.faiss::CodePacker", ptr %12, i32 0, i32 2
  %17 = load i64, ptr %16, align 8, !tbaa !13
  %18 = icmp uge i64 %15, %17
  br i1 %18, label %19, label %33

19:                                               ; preds = %4
  %20 = load i64, ptr %7, align 8, !tbaa !11
  %21 = getelementptr inbounds nuw %"struct.faiss::CodePacker", ptr %12, i32 0, i32 2
  %22 = load i64, ptr %21, align 8, !tbaa !13
  %23 = udiv i64 %20, %22
  %24 = getelementptr inbounds nuw %"struct.faiss::CodePacker", ptr %12, i32 0, i32 3
  %25 = load i64, ptr %24, align 8, !tbaa !15
  %26 = mul i64 %23, %25
  %27 = load ptr, ptr %8, align 8, !tbaa !9
  %28 = getelementptr inbounds nuw i8, ptr %27, i64 %26
  store ptr %28, ptr %8, align 8, !tbaa !9
  %29 = load i64, ptr %7, align 8, !tbaa !11
  %30 = getelementptr inbounds nuw %"struct.faiss::CodePacker", ptr %12, i32 0, i32 2
  %31 = load i64, ptr %30, align 8, !tbaa !13
  %32 = urem i64 %29, %31
  store i64 %32, ptr %7, align 8, !tbaa !11
  br label %33

33:                                               ; preds = %19, %4
  call void @llvm.lifetime.start.p0(i64 8, ptr %10) #6
  store i64 0, ptr %10, align 8, !tbaa !11
  br label %34

34:                                               ; preds = %68, %33
  %35 = load i64, ptr %10, align 8, !tbaa !11
  %36 = getelementptr inbounds nuw %"struct.faiss::CodePacker", ptr %12, i32 0, i32 1
  %37 = load i64, ptr %36, align 8, !tbaa !16
  %38 = icmp ult i64 %35, %37
  br i1 %38, label %40, label %39

39:                                               ; preds = %34
  call void @llvm.lifetime.end.p0(i64 8, ptr %10) #6
  br label %71

40:                                               ; preds = %34
  call void @llvm.lifetime.start.p0(i64 1, ptr %11) #6
  %41 = load ptr, ptr %6, align 8, !tbaa !9
  %42 = load i64, ptr %10, align 8, !tbaa !11
  %43 = getelementptr inbounds nuw i8, ptr %41, i64 %42
  %44 = load i8, ptr %43, align 1, !tbaa !17
  store i8 %44, ptr %11, align 1, !tbaa !17
  %45 = load ptr, ptr %8, align 8, !tbaa !9
  %46 = load i8, ptr %11, align 1, !tbaa !17
  %47 = zext i8 %46 to i32
  %48 = and i32 %47, 15
  %49 = trunc i32 %48 to i8
  %50 = load i64, ptr %9, align 8, !tbaa !11
  %51 = getelementptr inbounds nuw %"struct.faiss::CodePackerPQ4", ptr %12, i32 0, i32 1
  %52 = load i64, ptr %51, align 8, !tbaa !18
  %53 = load i64, ptr %7, align 8, !tbaa !11
  %54 = load i64, ptr %10, align 8, !tbaa !11
  %55 = mul i64 2, %54
  call void @_ZN5faiss22pq4_set_packed_elementEPhhmmmm(ptr noundef %45, i8 noundef zeroext %49, i64 noundef %50, i64 noundef %52, i64 noundef %53, i64 noundef %55)
  %56 = load ptr, ptr %8, align 8, !tbaa !9
  %57 = load i8, ptr %11, align 1, !tbaa !17
  %58 = zext i8 %57 to i32
  %59 = ashr i32 %58, 4
  %60 = trunc i32 %59 to i8
  %61 = load i64, ptr %9, align 8, !tbaa !11
  %62 = getelementptr inbounds nuw %"struct.faiss::CodePackerPQ4", ptr %12, i32 0, i32 1
  %63 = load i64, ptr %62, align 8, !tbaa !18
  %64 = load i64, ptr %7, align 8, !tbaa !11
  %65 = load i64, ptr %10, align 8, !tbaa !11
  %66 = mul i64 2, %65
  %67 = add i64 %66, 1
  call void @_ZN5faiss22pq4_set_packed_elementEPhhmmmm(ptr noundef %56, i8 noundef zeroext %60, i64 noundef %61, i64 noundef %63, i64 noundef %64, i64 noundef %67)
  call void @llvm.lifetime.end.p0(i64 1, ptr %11) #6
  br label %68

68:                                               ; preds = %40
  %69 = load i64, ptr %10, align 8, !tbaa !11
  %70 = add i64 %69, 1
  store i64 %70, ptr %10, align 8, !tbaa !11
  br label %34, !llvm.loop !20

71:                                               ; preds = %39
  call void @llvm.lifetime.end.p0(i64 8, ptr %9) #6
  ret void
}