; Function Attrs: mustprogress nofree norecurse nosync nounwind memory(argmem: readwrite) uwtable
define void @_ZNK5faiss13CodePackerPQ46pack_1EPKhmPh(ptr noundef nonnull readonly align 8 captures(none) dereferenceable(40) %0, ptr noundef readonly captures(none) %1, i64 noundef %2, ptr noundef captures(none) %3) unnamed_addr #0 align 2 {
  %5 = getelementptr inbounds nuw i8, ptr %0, i64 16
  %6 = load i64, ptr %5, align 8, !tbaa !4
  %.fr = freeze i64 %6
  %.not = icmp ult i64 %2, %.fr
  br i1 %.not, label %14, label %7

7:                                                ; preds = %4
  %8 = udiv i64 %2, %.fr
  %9 = getelementptr inbounds nuw i8, ptr %0, i64 24
  %10 = load i64, ptr %9, align 8, !tbaa !9
  %11 = mul i64 %10, %8
  %12 = getelementptr inbounds nuw i8, ptr %3, i64 %11
  %13 = urem i64 %2, %.fr
  br label %14

14:                                               ; preds = %7, %4
  %.019 = phi ptr [ %12, %7 ], [ %3, %4 ]
  %.0 = phi i64 [ %13, %7 ], [ %2, %4 ]
  %15 = getelementptr inbounds nuw i8, ptr %0, i64 8
  %16 = load i64, ptr %15, align 8, !tbaa !10
  %.not26 = icmp eq i64 %16, 0
  br i1 %.not26, label %._crit_edge, label %.lr.ph

.lr.ph:                                           ; preds = %14
  %17 = getelementptr inbounds nuw i8, ptr %0, i64 32
  %18 = urem i64 %.0, %.fr
  %19 = sub nuw i64 %.0, %18
  %20 = urem i64 %.0, %.fr
  %21 = icmp ugt i64 %20, 15
  %22 = and i64 %20, 15
  %23 = icmp samesign ult i64 %22, 8
  %24 = shl nuw nsw i64 %22, 1
  %25 = add nsw i64 %24, -15
  %.0.i.i = select i1 %23, i64 %24, i64 %25
  %.sink20.i = select i1 %21, i8 15, i8 -16
  br i1 %21, label %.lr.ph.split.us, label %.lr.ph.split

.lr.ph.split.us:                                  ; preds = %.lr.ph, %.lr.ph.split.us
  %.01825.us = phi i64 [ %53, %.lr.ph.split.us ], [ 0, %.lr.ph ]
  %26 = getelementptr inbounds nuw i8, ptr %1, i64 %.01825.us
  %27 = load i8, ptr %26, align 1, !tbaa !11
  %28 = load i64, ptr %17, align 8, !tbaa !12
  %29 = and i64 %.01825.us, 9223372036854775807
  %30 = add i64 %28, 1
  %31 = lshr i64 %30, 1
  %32 = mul i64 %19, %31
  %33 = getelementptr inbounds nuw i8, ptr %.019, i64 %32
  %34 = mul i64 %29, %.fr
  %35 = shl i8 %27, 4
  %36 = getelementptr i8, ptr %33, i64 %34
  %37 = getelementptr i8, ptr %36, i64 %.0.i.i
  %38 = load i8, ptr %37, align 1, !tbaa !11
  %39 = and i8 %.sink20.i, %38
  %40 = or i8 %39, %35
  store i8 %40, ptr %37, align 1, !tbaa !11
  %41 = load i64, ptr %17, align 8, !tbaa !12
  %42 = add i64 %41, 1
  %43 = lshr i64 %42, 1
  %44 = mul i64 %19, %43
  %45 = getelementptr inbounds nuw i8, ptr %.019, i64 %44
  %46 = and i8 %27, -16
  %47 = getelementptr i8, ptr %45, i64 %34
  %48 = getelementptr i8, ptr %47, i64 16
  %49 = getelementptr i8, ptr %48, i64 %.0.i.i
  %50 = load i8, ptr %49, align 1, !tbaa !11
  %51 = and i8 %50, %.sink20.i
  %52 = or i8 %51, %46
  store i8 %52, ptr %49, align 1, !tbaa !11
  %53 = add nuw i64 %.01825.us, 1
  %54 = load i64, ptr %15, align 8, !tbaa !10
  %55 = icmp ult i64 %53, %54
  br i1 %55, label %.lr.ph.split.us, label %._crit_edge, !llvm.loop !14

._crit_edge:                                      ; preds = %.lr.ph.split, %.lr.ph.split.us, %14
  ret void

.lr.ph.split:                                     ; preds = %.lr.ph, %.lr.ph.split
  %.01825 = phi i64 [ %83, %.lr.ph.split ], [ 0, %.lr.ph ]
  %56 = getelementptr inbounds nuw i8, ptr %1, i64 %.01825
  %57 = load i8, ptr %56, align 1, !tbaa !11
  %58 = and i8 %57, 15
  %59 = load i64, ptr %17, align 8, !tbaa !12
  %60 = and i64 %.01825, 9223372036854775807
  %61 = add i64 %59, 1
  %62 = lshr i64 %61, 1
  %63 = mul i64 %19, %62
  %64 = getelementptr inbounds nuw i8, ptr %.019, i64 %63
  %65 = mul i64 %60, %.fr
  %66 = getelementptr i8, ptr %64, i64 %65
  %67 = getelementptr i8, ptr %66, i64 %.0.i.i
  %68 = load i8, ptr %67, align 1, !tbaa !11
  %69 = and i8 %.sink20.i, %68
  %70 = or i8 %69, %58
  store i8 %70, ptr %67, align 1, !tbaa !11
  %71 = lshr i8 %57, 4
  %72 = load i64, ptr %17, align 8, !tbaa !12
  %73 = add i64 %72, 1
  %74 = lshr i64 %73, 1
  %75 = mul i64 %19, %74
  %76 = getelementptr inbounds nuw i8, ptr %.019, i64 %75
  %77 = getelementptr i8, ptr %76, i64 %65
  %78 = getelementptr i8, ptr %77, i64 16
  %79 = getelementptr i8, ptr %78, i64 %.0.i.i
  %80 = load i8, ptr %79, align 1, !tbaa !11
  %81 = and i8 %80, %.sink20.i
  %82 = or i8 %81, %71
  store i8 %82, ptr %79, align 1, !tbaa !11
  %83 = add nuw i64 %.01825, 1
  %84 = load i64, ptr %15, align 8, !tbaa !10
  %85 = icmp ult i64 %83, %84
  br i1 %85, label %.lr.ph.split, label %._crit_edge, !llvm.loop !14
}